; Function Attrs: mustprogress nounwind uwtable
define hidden noundef ptr @_ZNK7Compile5startEv(ptr nocapture noundef nonnull readonly align 8 dereferenceable(2316) %0) local_unnamed_addr #0 align 2 {
  %2 = getelementptr inbounds i8, ptr %0, i64 736
  %3 = load ptr, ptr %2, align 8
  %4 = getelementptr inbounds i8, ptr %3, i64 16
  %5 = load ptr, ptr %4, align 8
  %6 = getelementptr inbounds i8, ptr %3, i64 32
  %7 = load i32, ptr %6, align 8
  %8 = zext i32 %7 to i64
  %9 = getelementptr inbounds ptr, ptr %5, i64 %8
  %.not = icmp eq i32 %7, 0
  br i1 %.not, label %._crit_edge, label %.lr.ph

10:                                               ; preds = %.lr.ph
  %11 = getelementptr inbounds i8, ptr %.07, i64 8
  %12 = icmp ult ptr %11, %9
  br i1 %12, label %.lr.ph, label %._crit_edge, !llvm.loop !32

.lr.ph:                                           ; preds = %1, %10
  %.07 = phi ptr [ %11, %10 ], [ %5, %1 ]
  %13 = load ptr, ptr %.07, align 8
  %14 = getelementptr inbounds i8, ptr %13, i64 44
  %15 = load i32, ptr %14, align 4
  %16 = and i32 %15, 15
  %17 = icmp eq i32 %16, 9
  br i1 %17, label %18, label %10

18:                                               ; preds = %.lr.ph
  ret ptr %13

._crit_edge:                                      ; preds = %10, %1
  %19 = load ptr, ptr @g_assert_poison, align 8
  store i8 88, ptr %19, align 1
  tail call void (i32, ptr, i32, ptr, ...) @_Z12report_fatal11VMErrorTypePKciS1_z(i32 noundef -536870912, ptr noundef nonnull @.str.7, i32 noundef 1128, ptr noundef nonnull @.str.8) #18
  unreachable
}